target datalayout = "e-m:e-p270:32:32-p271:32:32-p272:64:64-i64:64-i128:128-f80:128-n8:16:32:64-S128"
target triple = "x86_64-unknown-linux-gnu"

%"class.cvc5::internal::NodeTemplate.0" = type { ptr }
%"class.cvc5::internal::NodeTemplate" = type { ptr }
%"class.cvc5::internal::theory::arith::linear::Constraint" = type <{ i32, i32, %"class.cvc5::internal::DeltaRational", ptr, %"class.cvc5::internal::NodeTemplate", ptr, i8, [7 x i8], i64, %"class.cvc5::internal::NodeTemplate.0", i64, i8, [7 x i8], %"struct.std::_Rb_tree_iterator", i8, [7 x i8] }>
%"class.cvc5::internal::DeltaRational" = type { %"class.cvc5::internal::Rational", %"class.cvc5::internal::Rational" }
%"class.cvc5::internal::Rational" = type { %class.__gmp_expr }
%class.__gmp_expr = type { [1 x %struct.__mpq_struct] }
%struct.__mpq_struct = type { %struct.__mpz_struct, %struct.__mpz_struct }
%struct.__mpz_struct = type { i32, i32, ptr }
%"struct.std::_Rb_tree_iterator" = type { ptr }

; Function Attrs: mustprogress nounwind uwtable
define hidden void @_ZN4cvc58internal6theory5arith6linear10Constraint10initializeEPNS3_18ConstraintDatabaseESt17_Rb_tree_iteratorISt4pairIKNS0_13DeltaRationalENS3_15ValueCollectionEEEPS4_(ptr noundef nonnull align 8 dereferenceable(145) %this, ptr noundef %db, ptr %v.coerce, ptr noundef %negation) #4 align 2 {
entry:
  %v = alloca %"struct.std::_Rb_tree_iterator", align 8
  %this.addr = alloca ptr, align 8
  %db.addr = alloca ptr, align 8
  %negation.addr = alloca ptr, align 8
  %coerce.dive = getelementptr inbounds %"struct.std::_Rb_tree_iterator", ptr %v, i32 0, i32 0
  store ptr %v.coerce, ptr %coerce.dive, align 8
  store ptr %this, ptr %this.addr, align 8
  store ptr %db, ptr %db.addr, align 8
  store ptr %negation, ptr %negation.addr, align 8
  %this1 = load ptr, ptr %this.addr, align 8
  %0 = load ptr, ptr %db.addr, align 8
  %d_database = getelementptr inbounds %"class.cvc5::internal::theory::arith::linear::Constraint", ptr %this1, i32 0, i32 3
  store ptr %0, ptr %d_database, align 8
  %d_variablePosition = getelementptr inbounds %"class.cvc5::internal::theory::arith::linear::Constraint", ptr %this1, i32 0, i32 13
  call void @llvm.memcpy.p0.p0.i64(ptr align 8 %d_variablePosition, ptr align 8 %v, i64 8, i1 false)
  %1 = load ptr, ptr %negation.addr, align 8
  %d_negation = getelementptr inbounds %"class.cvc5::internal::theory::arith::linear::Constraint", ptr %this1, i32 0, i32 5
  store ptr %1, ptr %d_negation, align 8
  ret void
}