; Function Attrs: mustprogress nofree norecurse nosync nounwind willreturn memory(argmem: write) uwtable
define hidden void @_ZN4cvc58internal6theory5arith6linear10Constraint10initializeEPNS3_18ConstraintDatabaseESt17_Rb_tree_iteratorISt4pairIKNS0_13DeltaRationalENS3_15ValueCollectionEEEPS4_(ptr nocapture noundef nonnull writeonly align 8 dereferenceable(145) %this, ptr noundef %db, ptr %v.coerce, ptr noundef %negation) local_unnamed_addr #3 align 2 {
entry:
  %d_database = getelementptr inbounds i8, ptr %this, i64 72
  store ptr %db, ptr %d_database, align 8
  %d_variablePosition = getelementptr inbounds i8, ptr %this, i64 136
  store ptr %v.coerce, ptr %d_variablePosition, align 8
  %d_negation = getelementptr inbounds i8, ptr %this, i64 88
  store ptr %negation, ptr %d_negation, align 8
  ret void
}